target datalayout = "e-m:e-p270:32:32-p271:32:32-p272:64:64-i64:64-i128:128-f80:128-n8:16:32:64-S128"
target triple = "x86_64-pc-linux-gnu"

%"class.ncnn::GridSample" = type { %"class.ncnn::Layer", i32, i32, i32, i32 }
%"class.ncnn::Layer" = type { ptr, i8, i8, i8, i8, i8, i8, i8, i8, i8, i8, i8, i8, i8, i8, i8, i8, i8, i8, i8, i8, i32, ptr, i32, %"class.std::__cxx11::basic_string", %"class.std::__cxx11::basic_string", %"class.std::vector", %"class.std::vector", %"class.std::vector.3", %"class.std::vector.3" }
%"class.std::__cxx11::basic_string" = type { %"struct.std::__cxx11::basic_string<char>::_Alloc_hider", i64, %union.anon }
%"struct.std::__cxx11::basic_string<char>::_Alloc_hider" = type { ptr }
%union.anon = type { i64, [8 x i8] }
%"class.std::vector" = type { %"struct.std::_Vector_base" }
%"struct.std::_Vector_base" = type { %"struct.std::_Vector_base<int, std::allocator<int>>::_Vector_impl" }
%"struct.std::_Vector_base<int, std::allocator<int>>::_Vector_impl" = type { %"struct.std::_Vector_base<int, std::allocator<int>>::_Vector_impl_data" }
%"struct.std::_Vector_base<int, std::allocator<int>>::_Vector_impl_data" = type { ptr, ptr, ptr }
%"class.std::vector.3" = type { %"struct.std::_Vector_base.4" }
%"struct.std::_Vector_base.4" = type { %"struct.std::_Vector_base<ncnn::Mat, std::allocator<ncnn::Mat>>::_Vector_impl" }
%"struct.std::_Vector_base<ncnn::Mat, std::allocator<ncnn::Mat>>::_Vector_impl" = type { %"struct.std::_Vector_base<ncnn::Mat, std::allocator<ncnn::Mat>>::_Vector_impl_data" }
%"struct.std::_Vector_base<ncnn::Mat, std::allocator<ncnn::Mat>>::_Vector_impl_data" = type { ptr, ptr, ptr }

@stderr = external global ptr, align 8
@.str = private unnamed_addr constant [27 x i8] c"unsupported sample type %d\00", align 1
@.str.1 = private unnamed_addr constant [2 x i8] c"\0A\00", align 1
@.str.2 = private unnamed_addr constant [28 x i8] c"unsupported padding mode %d\00", align 1

; Function Attrs: mustprogress uwtable
define hidden noundef i32 @_ZN4ncnn10GridSample10load_paramERKNS_9ParamDictE(ptr noundef nonnull align 8 dereferenceable(224) %0, ptr noundef nonnull align 8 dereferenceable(16) %1) unnamed_addr #2 align 2 {
  %3 = alloca i32, align 4
  %4 = alloca ptr, align 8
  %5 = alloca ptr, align 8
  store ptr %0, ptr %4, align 8, !tbaa !4
  store ptr %1, ptr %5, align 8, !tbaa !9
  %6 = load ptr, ptr %4, align 8
  %7 = load ptr, ptr %5, align 8, !tbaa !9
  %8 = call noundef i32 @_ZNK4ncnn9ParamDict3getEii(ptr noundef nonnull align 8 dereferenceable(16) %7, i32 noundef 0, i32 noundef 1)
  %9 = getelementptr inbounds nuw %"class.ncnn::GridSample", ptr %6, i32 0, i32 1
  store i32 %8, ptr %9, align 8, !tbaa !11
  %10 = load ptr, ptr %5, align 8, !tbaa !9
  %11 = call noundef i32 @_ZNK4ncnn9ParamDict3getEii(ptr noundef nonnull align 8 dereferenceable(16) %10, i32 noundef 1, i32 noundef 1)
  %12 = getelementptr inbounds nuw %"class.ncnn::GridSample", ptr %6, i32 0, i32 2
  store i32 %11, ptr %12, align 4, !tbaa !30
  %13 = load ptr, ptr %5, align 8, !tbaa !9
  %14 = call noundef i32 @_ZNK4ncnn9ParamDict3getEii(ptr noundef nonnull align 8 dereferenceable(16) %13, i32 noundef 2, i32 noundef 0)
  %15 = getelementptr inbounds nuw %"class.ncnn::GridSample", ptr %6, i32 0, i32 3
  store i32 %14, ptr %15, align 8, !tbaa !31
  %16 = load ptr, ptr %5, align 8, !tbaa !9
  %17 = call noundef i32 @_ZNK4ncnn9ParamDict3getEii(ptr noundef nonnull align 8 dereferenceable(16) %16, i32 noundef 3, i32 noundef 0)
  %18 = getelementptr inbounds nuw %"class.ncnn::GridSample", ptr %6, i32 0, i32 4
  store i32 %17, ptr %18, align 4, !tbaa !32
  %19 = getelementptr inbounds nuw %"class.ncnn::GridSample", ptr %6, i32 0, i32 1
  %20 = load i32, ptr %19, align 8, !tbaa !11
  %21 = icmp slt i32 %20, 1
  br i1 %21, label %26, label %22

22:                                               ; preds = %2
  %23 = getelementptr inbounds nuw %"class.ncnn::GridSample", ptr %6, i32 0, i32 1
  %24 = load i32, ptr %23, align 8, !tbaa !11
  %25 = icmp sgt i32 %24, 3
  br i1 %25, label %26, label %35

26:                                               ; preds = %22, %2
  br label %27

27:                                               ; preds = %26
  %28 = load ptr, ptr @stderr, align 8, !tbaa !33
  %29 = getelementptr inbounds nuw %"class.ncnn::GridSample", ptr %6, i32 0, i32 1
  %30 = load i32, ptr %29, align 8, !tbaa !11
  %31 = call i32 (ptr, ptr, ...) @fprintf(ptr noundef %28, ptr noundef @.str, i32 noundef %30) #9
  %32 = load ptr, ptr @stderr, align 8, !tbaa !33
  %33 = call i32 (ptr, ptr, ...) @fprintf(ptr noundef %32, ptr noundef @.str.1) #9
  br label %34

34:                                               ; preds = %27
  store i32 -1, ptr %3, align 4
  br label %53

35:                                               ; preds = %22
  %36 = getelementptr inbounds nuw %"class.ncnn::GridSample", ptr %6, i32 0, i32 2
  %37 = load i32, ptr %36, align 4, !tbaa !30
  %38 = icmp slt i32 %37, 1
  br i1 %38, label %43, label %39

39:                                               ; preds = %35
  %40 = getelementptr inbounds nuw %"class.ncnn::GridSample", ptr %6, i32 0, i32 2
  %41 = load i32, ptr %40, align 4, !tbaa !30
  %42 = icmp sgt i32 %41, 3
  br i1 %42, label %43, label %52

43:                                               ; preds = %39, %35
  br label %44

44:                                               ; preds = %43
  %45 = load ptr, ptr @stderr, align 8, !tbaa !33
  %46 = getelementptr inbounds nuw %"class.ncnn::GridSample", ptr %6, i32 0, i32 2
  %47 = load i32, ptr %46, align 4, !tbaa !30
  %48 = call i32 (ptr, ptr, ...) @fprintf(ptr noundef %45, ptr noundef @.str.2, i32 noundef %47) #9
  %49 = load ptr, ptr @stderr, align 8, !tbaa !33
  %50 = call i32 (ptr, ptr, ...) @fprintf(ptr noundef %49, ptr noundef @.str.1) #9
  br label %51

51:                                               ; preds = %44
  store i32 -1, ptr %3, align 4
  br label %53

52:                                               ; preds = %39
  store i32 0, ptr %3, align 4
  br label %53

53:                                               ; preds = %52, %51, %34
  %54 = load i32, ptr %3, align 4
  ret i32 %54
}