; Function Attrs: mustprogress uwtable
define hidden noundef range(i32 -1, 1) i32 @_ZN4ncnn10GridSample10load_paramERKNS_9ParamDictE(ptr noundef nonnull align 8 captures(none) dereferenceable(224) initializes((208, 224)) %0, ptr noundef nonnull align 8 dereferenceable(16) %1) unnamed_addr #2 align 2 {
  %3 = tail call noundef i32 @_ZNK4ncnn9ParamDict3getEii(ptr noundef nonnull align 8 dereferenceable(16) %1, i32 noundef 0, i32 noundef 1)
  %4 = getelementptr inbounds nuw i8, ptr %0, i64 208
  store i32 %3, ptr %4, align 8, !tbaa !4
  %5 = tail call noundef i32 @_ZNK4ncnn9ParamDict3getEii(ptr noundef nonnull align 8 dereferenceable(16) %1, i32 noundef 1, i32 noundef 1)
  %6 = getelementptr inbounds nuw i8, ptr %0, i64 212
  store i32 %5, ptr %6, align 4, !tbaa !26
  %7 = tail call noundef i32 @_ZNK4ncnn9ParamDict3getEii(ptr noundef nonnull align 8 dereferenceable(16) %1, i32 noundef 2, i32 noundef 0)
  %8 = getelementptr inbounds nuw i8, ptr %0, i64 216
  store i32 %7, ptr %8, align 8, !tbaa !27
  %9 = tail call noundef i32 @_ZNK4ncnn9ParamDict3getEii(ptr noundef nonnull align 8 dereferenceable(16) %1, i32 noundef 3, i32 noundef 0)
  %10 = getelementptr inbounds nuw i8, ptr %0, i64 220
  store i32 %9, ptr %10, align 4, !tbaa !28
  %11 = load i32, ptr %4, align 8, !tbaa !4
  %12 = add i32 %11, -4
  %or.cond = icmp ult i32 %12, -3
  br i1 %or.cond, label %13, label %16

13:                                               ; preds = %2
  %14 = load ptr, ptr @stderr, align 8, !tbaa !29
  %15 = tail call i32 (ptr, ptr, ...) @fprintf(ptr noundef %14, ptr noundef nonnull @.str, i32 noundef %11) #17
  br label %.sink.split

16:                                               ; preds = %2
  %17 = load i32, ptr %6, align 4, !tbaa !26
  %18 = add i32 %17, -4
  %or.cond8 = icmp ult i32 %18, -3
  br i1 %or.cond8, label %19, label %23

19:                                               ; preds = %16
  %20 = load ptr, ptr @stderr, align 8, !tbaa !29
  %21 = tail call i32 (ptr, ptr, ...) @fprintf(ptr noundef %20, ptr noundef nonnull @.str.2, i32 noundef %17) #17
  br label %.sink.split

.sink.split:                                      ; preds = %13, %19
  %22 = load ptr, ptr @stderr, align 8, !tbaa !29
  %fputc = tail call i32 @fputc(i32 10, ptr %22)
  br label %23

23:                                               ; preds = %.sink.split, %16
  %.0 = phi i32 [ 0, %16 ], [ -1, %.sink.split ]
  ret i32 %.0
}